(lp0
S'<a href="/genres/chart/?view=main&amp;sort=gross&amp;order=DESC&amp;pagenum=19&amp;id=foreign.htm">#1801-1831</a>'
p1
aS'http://www.boxofficemojo.com/genres/chart/?view=main&sort=gross&order=DESC&pagenum=2&id=foreign.htm'
p2
aS'http://www.boxofficemojo.com/genres/chart/?view=main&sort=gross&order=DESC&pagenum=3&id=foreign.htm'
p3
aS'http://www.boxofficemojo.com/genres/chart/?view=main&sort=gross&order=DESC&pagenum=4&id=foreign.htm'
p4
aS'http://www.boxofficemojo.com/genres/chart/?view=main&sort=gross&order=DESC&pagenum=5&id=foreign.htm'
p5
aS'http://www.boxofficemojo.com/genres/chart/?view=main&sort=gross&order=DESC&pagenum=6&id=foreign.htm'
p6
aS'http://www.boxofficemojo.com/genres/chart/?view=main&sort=gross&order=DESC&pagenum=7&id=foreign.htm'
p7
aS'http://www.boxofficemojo.com/genres/chart/?view=main&sort=gross&order=DESC&pagenum=8&id=foreign.htm'
p8
aS'http://www.boxofficemojo.com/genres/chart/?view=main&sort=gross&order=DESC&pagenum=9&id=foreign.htm'
p9
aS'http://www.boxofficemojo.com/genres/chart/?view=main&sort=gross&order=DESC&pagenum=10&id=foreign.htm'
p10
aS'http://www.boxofficemojo.com/genres/chart/?view=main&sort=gross&order=DESC&pagenum=11&id=foreign.htm'
p11
aS'http://www.boxofficemojo.com/genres/chart/?view=main&sort=gross&order=DESC&pagenum=12&id=foreign.htm'
p12
aS'http://www.boxofficemojo.com/genres/chart/?view=main&sort=gross&order=DESC&pagenum=13&id=foreign.htm'
p13
aS'http://www.boxofficemojo.com/genres/chart/?view=main&sort=gross&order=DESC&pagenum=14&id=foreign.htm'
p14
aS'http://www.boxofficemojo.com/genres/chart/?view=main&sort=gross&order=DESC&pagenum=15&id=foreign.htm'
p15
aS'http://www.boxofficemojo.com/genres/chart/?view=main&sort=gross&order=DESC&pagenum=16&id=foreign.htm'
p16
aS'http://www.boxofficemojo.com/genres/chart/?view=main&sort=gross&order=DESC&pagenum=17&id=foreign.htm'
p17
aS'http://www.boxofficemojo.com/genres/chart/?view=main&sort=gross&order=DESC&pagenum=18&id=foreign.htm'
p18
aS'http://www.boxofficemojo.com/genres/chart/?view=main&sort=gross&order=DESC&pagenum=19&id=foreign.htm'
p19
a.